target datalayout = "e-m:e-p270:32:32-p271:32:32-p272:64:64-i64:64-i128:128-f80:128-n8:16:32:64-S128"
target triple = "x86_64-pc-linux-gnu"

%struct.Abc_Obj_t_ = type { ptr, ptr, i32, i32, %struct.Vec_Int_t_, %struct.Vec_Int_t_, %union.anon, %union.anon.0 }
%struct.Vec_Int_t_ = type { i32, i32, ptr }
%union.anon = type { ptr }
%union.anon.0 = type { ptr }
%struct.Abc_Ntk_t_ = type { i32, i32, ptr, ptr, ptr, ptr, ptr, ptr, ptr, ptr, ptr, ptr, ptr, [11 x i32], i32, i32, i32, i32, ptr, i32, ptr, ptr, i32, i32, i32, double, i32, %struct.Vec_Int_t_, ptr, ptr, ptr, ptr, ptr, float, i32, ptr, ptr, ptr, ptr, ptr, ptr, ptr, ptr, ptr, ptr, ptr, ptr, ptr, ptr, ptr, ptr, ptr, ptr, ptr, ptr, ptr }
%struct.Vec_Ptr_t_ = type { i32, i32, ptr }

; Function Attrs: nounwind uwtable
define internal void @Vec_IntWriteEntry(ptr noundef %0, i32 noundef %1, i32 noundef %2) #0 {
  %4 = alloca ptr, align 8
  %5 = alloca i32, align 4
  %6 = alloca i32, align 4
  store ptr %0, ptr %4, align 8
  store i32 %1, ptr %5, align 4
  store i32 %2, ptr %6, align 4
  %7 = load i32, ptr %6, align 4
  %8 = load ptr, ptr %4, align 8
  %9 = getelementptr inbounds %struct.Vec_Int_t_, ptr %8, i32 0, i32 2
  %10 = load ptr, ptr %9, align 8
  %11 = load i32, ptr %5, align 4
  %12 = sext i32 %11 to i64
  %13 = getelementptr inbounds i32, ptr %10, i64 %12
  store i32 %7, ptr %13, align 4
  ret void
}

; Function Attrs: nounwind uwtable
define internal void @Vec_IntSetEntry(ptr noundef %0, i32 noundef %1, i32 noundef %2) #0 {
  %4 = alloca ptr, align 8
  %5 = alloca i32, align 4
  %6 = alloca i32, align 4
  store ptr %0, ptr %4, align 8
  store i32 %1, ptr %5, align 4
  store i32 %2, ptr %6, align 4
  %7 = load ptr, ptr %4, align 8
  %8 = load i32, ptr %5, align 4
  %9 = add nsw i32 %8, 1
  call void @Vec_IntFillExtra(ptr noundef %7, i32 noundef %9, i32 noundef 0)
  %10 = load ptr, ptr %4, align 8
  %11 = load i32, ptr %5, align 4
  %12 = load i32, ptr %6, align 4
  call void @Vec_IntWriteEntry(ptr noundef %10, i32 noundef %11, i32 noundef %12)
  ret void
}

; Function Attrs: nounwind uwtable
define internal i32 @Abc_ObjId(ptr noundef %0) #0 {
  %2 = alloca ptr, align 8
  store ptr %0, ptr %2, align 8
  %3 = load ptr, ptr %2, align 8
  %4 = getelementptr inbounds %struct.Abc_Obj_t_, ptr %3, i32 0, i32 2
  %5 = load i32, ptr %4, align 8
  ret i32 %5
}

; Function Attrs: nounwind uwtable
define internal void @Abc_NodeSetTravId(ptr noundef %0, i32 noundef %1) #0 {
  %3 = alloca ptr, align 8
  %4 = alloca i32, align 4
  store ptr %0, ptr %3, align 8
  store i32 %1, ptr %4, align 4
  %5 = load ptr, ptr %3, align 8
  %6 = call ptr @Abc_ObjNtk(ptr noundef %5)
  %7 = getelementptr inbounds %struct.Abc_Ntk_t_, ptr %6, i32 0, i32 27
  %8 = load ptr, ptr %3, align 8
  %9 = call i32 @Abc_ObjId(ptr noundef %8)
  %10 = load i32, ptr %4, align 4
  call void @Vec_IntSetEntry(ptr noundef %7, i32 noundef %9, i32 noundef %10)
  ret void
}

; Function Attrs: nounwind uwtable
define internal ptr @Abc_ObjNtk(ptr noundef %0) #0 {
  %2 = alloca ptr, align 8
  store ptr %0, ptr %2, align 8
  %3 = load ptr, ptr %2, align 8
  %4 = getelementptr inbounds %struct.Abc_Obj_t_, ptr %3, i32 0, i32 0
  %5 = load ptr, ptr %4, align 8
  ret ptr %5
}

; Function Attrs: nounwind uwtable
define internal ptr @Abc_ObjFanin1(ptr noundef %0) #0 {
  %2 = alloca ptr, align 8
  store ptr %0, ptr %2, align 8
  %3 = load ptr, ptr %2, align 8
  %4 = getelementptr inbounds %struct.Abc_Obj_t_, ptr %3, i32 0, i32 0
  %5 = load ptr, ptr %4, align 8
  %6 = getelementptr inbounds %struct.Abc_Ntk_t_, ptr %5, i32 0, i32 5
  %7 = load ptr, ptr %6, align 8
  %8 = getelementptr inbounds %struct.Vec_Ptr_t_, ptr %7, i32 0, i32 2
  %9 = load ptr, ptr %8, align 8
  %10 = load ptr, ptr %2, align 8
  %11 = getelementptr inbounds %struct.Abc_Obj_t_, ptr %10, i32 0, i32 4
  %12 = getelementptr inbounds %struct.Vec_Int_t_, ptr %11, i32 0, i32 2
  %13 = load ptr, ptr %12, align 8
  %14 = getelementptr inbounds i32, ptr %13, i64 1
  %15 = load i32, ptr %14, align 4
  %16 = sext i32 %15 to i64
  %17 = getelementptr inbounds ptr, ptr %9, i64 %16
  %18 = load ptr, ptr %17, align 8
  ret ptr %18
}

; Function Attrs: nounwind uwtable
define internal ptr @Abc_ObjFanin0(ptr noundef %0) #0 {
  %2 = alloca ptr, align 8
  store ptr %0, ptr %2, align 8
  %3 = load ptr, ptr %2, align 8
  %4 = getelementptr inbounds %struct.Abc_Obj_t_, ptr %3, i32 0, i32 0
  %5 = load ptr, ptr %4, align 8
  %6 = getelementptr inbounds %struct.Abc_Ntk_t_, ptr %5, i32 0, i32 5
  %7 = load ptr, ptr %6, align 8
  %8 = getelementptr inbounds %struct.Vec_Ptr_t_, ptr %7, i32 0, i32 2
  %9 = load ptr, ptr %8, align 8
  %10 = load ptr, ptr %2, align 8
  %11 = getelementptr inbounds %struct.Abc_Obj_t_, ptr %10, i32 0, i32 4
  %12 = getelementptr inbounds %struct.Vec_Int_t_, ptr %11, i32 0, i32 2
  %13 = load ptr, ptr %12, align 8
  %14 = getelementptr inbounds i32, ptr %13, i64 0
  %15 = load i32, ptr %14, align 4
  %16 = sext i32 %15 to i64
  %17 = getelementptr inbounds ptr, ptr %9, i64 %16
  %18 = load ptr, ptr %17, align 8
  ret ptr %18
}

; Function Attrs: nounwind uwtable
define internal i32 @Abc_ObjIsCi(ptr noundef %0) #0 {
  %2 = alloca ptr, align 8
  store ptr %0, ptr %2, align 8
  %3 = load ptr, ptr %2, align 8
  %4 = getelementptr inbounds %struct.Abc_Obj_t_, ptr %3, i32 0, i32 3
  %5 = load i32, ptr %4, align 4
  %6 = and i32 %5, 15
  %7 = icmp eq i32 %6, 2
  br i1 %7, label %14, label %8

8:                                                ; preds = %1
  %9 = load ptr, ptr %2, align 8
  %10 = getelementptr inbounds %struct.Abc_Obj_t_, ptr %9, i32 0, i32 3
  %11 = load i32, ptr %10, align 4
  %12 = and i32 %11, 15
  %13 = icmp eq i32 %12, 5
  br label %14

14:                                               ; preds = %8, %1
  %15 = phi i1 [ true, %1 ], [ %13, %8 ]
  %16 = zext i1 %15 to i32
  ret i32 %16
}

; Function Attrs: nounwind uwtable
define internal void @Abc_NodeSetTravIdCurrent(ptr noundef %0) #0 {
  %2 = alloca ptr, align 8
  store ptr %0, ptr %2, align 8
  %3 = load ptr, ptr %2, align 8
  %4 = load ptr, ptr %2, align 8
  %5 = call ptr @Abc_ObjNtk(ptr noundef %4)
  %6 = getelementptr inbounds %struct.Abc_Ntk_t_, ptr %5, i32 0, i32 26
  %7 = load i32, ptr %6, align 8
  call void @Abc_NodeSetTravId(ptr noundef %3, i32 noundef %7)
  ret void
}

; Function Attrs: nounwind uwtable
define internal i32 @Abc_NodeRefDeref(ptr noundef %0, i32 noundef %1, i32 noundef %2) #0 {
  %4 = alloca i32, align 4
  %5 = alloca ptr, align 8
  %6 = alloca i32, align 4
  %7 = alloca i32, align 4
  %8 = alloca ptr, align 8
  %9 = alloca ptr, align 8
  %10 = alloca i32, align 4
  store ptr %0, ptr %5, align 8
  store i32 %1, ptr %6, align 4
  store i32 %2, ptr %7, align 4
  %11 = load i32, ptr %7, align 4
  %12 = icmp ne i32 %11, 0
  br i1 %12, label %13, label %15

13:                                               ; preds = %3
  %14 = load ptr, ptr %5, align 8
  call void @Abc_NodeSetTravIdCurrent(ptr noundef %14)
  br label %15

15:                                               ; preds = %13, %3
  %16 = load ptr, ptr %5, align 8
  %17 = call i32 @Abc_ObjIsCi(ptr noundef %16)
  %18 = icmp ne i32 %17, 0
  br i1 %18, label %19, label %20

19:                                               ; preds = %15
  store i32 0, ptr %4, align 4
  br label %87

20:                                               ; preds = %15
  %21 = load ptr, ptr %5, align 8
  %22 = call ptr @Abc_ObjFanin0(ptr noundef %21)
  store ptr %22, ptr %8, align 8
  %23 = load ptr, ptr %5, align 8
  %24 = call ptr @Abc_ObjFanin1(ptr noundef %23)
  store ptr %24, ptr %9, align 8
  store i32 1, ptr %10, align 4
  %25 = load i32, ptr %6, align 4
  %26 = icmp ne i32 %25, 0
  br i1 %26, label %27, label %56

27:                                               ; preds = %20
  %28 = load ptr, ptr %8, align 8
  %29 = getelementptr inbounds %struct.Abc_Obj_t_, ptr %28, i32 0, i32 5
  %30 = getelementptr inbounds %struct.Vec_Int_t_, ptr %29, i32 0, i32 1
  %31 = load i32, ptr %30, align 4
  %32 = add nsw i32 %31, 1
  store i32 %32, ptr %30, align 4
  %33 = icmp eq i32 %31, 0
  br i1 %33, label %34, label %41

34:                                               ; preds = %27
  %35 = load ptr, ptr %8, align 8
  %36 = load i32, ptr %6, align 4
  %37 = load i32, ptr %7, align 4
  %38 = call i32 @Abc_NodeRefDeref(ptr noundef %35, i32 noundef %36, i32 noundef %37)
  %39 = load i32, ptr %10, align 4
  %40 = add nsw i32 %39, %38
  store i32 %40, ptr %10, align 4
  br label %41

41:                                               ; preds = %34, %27
  %42 = load ptr, ptr %9, align 8
  %43 = getelementptr inbounds %struct.Abc_Obj_t_, ptr %42, i32 0, i32 5
  %44 = getelementptr inbounds %struct.Vec_Int_t_, ptr %43, i32 0, i32 1
  %45 = load i32, ptr %44, align 4
  %46 = add nsw i32 %45, 1
  store i32 %46, ptr %44, align 4
  %47 = icmp eq i32 %45, 0
  br i1 %47, label %48, label %55

48:                                               ; preds = %41
  %49 = load ptr, ptr %9, align 8
  %50 = load i32, ptr %6, align 4
  %51 = load i32, ptr %7, align 4
  %52 = call i32 @Abc_NodeRefDeref(ptr noundef %49, i32 noundef %50, i32 noundef %51)
  %53 = load i32, ptr %10, align 4
  %54 = add nsw i32 %53, %52
  store i32 %54, ptr %10, align 4
  br label %55

55:                                               ; preds = %48, %41
  br label %85

56:                                               ; preds = %20
  %57 = load ptr, ptr %8, align 8
  %58 = getelementptr inbounds %struct.Abc_Obj_t_, ptr %57, i32 0, i32 5
  %59 = getelementptr inbounds %struct.Vec_Int_t_, ptr %58, i32 0, i32 1
  %60 = load i32, ptr %59, align 4
  %61 = add nsw i32 %60, -1
  store i32 %61, ptr %59, align 4
  %62 = icmp eq i32 %61, 0
  br i1 %62, label %63, label %70

63:                                               ; preds = %56
  %64 = load ptr, ptr %8, align 8
  %65 = load i32, ptr %6, align 4
  %66 = load i32, ptr %7, align 4
  %67 = call i32 @Abc_NodeRefDeref(ptr noundef %64, i32 noundef %65, i32 noundef %66)
  %68 = load i32, ptr %10, align 4
  %69 = add nsw i32 %68, %67
  store i32 %69, ptr %10, align 4
  br label %70

70:                                               ; preds = %63, %56
  %71 = load ptr, ptr %9, align 8
  %72 = getelementptr inbounds %struct.Abc_Obj_t_, ptr %71, i32 0, i32 5
  %73 = getelementptr inbounds %struct.Vec_Int_t_, ptr %72, i32 0, i32 1
  %74 = load i32, ptr %73, align 4
  %75 = add nsw i32 %74, -1
  store i32 %75, ptr %73, align 4
  %76 = icmp eq i32 %75, 0
  br i1 %76, label %77, label %84

77:                                               ; preds = %70
  %78 = load ptr, ptr %9, align 8
  %79 = load i32, ptr %6, align 4
  %80 = load i32, ptr %7, align 4
  %81 = call i32 @Abc_NodeRefDeref(ptr noundef %78, i32 noundef %79, i32 noundef %80)
  %82 = load i32, ptr %10, align 4
  %83 = add nsw i32 %82, %81
  store i32 %83, ptr %10, align 4
  br label %84

84:                                               ; preds = %77, %70
  br label %85

85:                                               ; preds = %84, %55
  %86 = load i32, ptr %10, align 4
  store i32 %86, ptr %4, align 4
  br label %87

87:                                               ; preds = %85, %19
  %88 = load i32, ptr %4, align 4
  ret i32 %88
}