; Function Attrs: nounwind uwtable
define internal fastcc i32 @Abc_NodeRefDeref(ptr noundef readonly captures(none) %0, i32 noundef range(i32 0, 2) %1, i32 noundef range(i32 0, 2) %2) unnamed_addr #0 {
  br label %tailrecurse89

tailrecurse89:                                    ; preds = %81, %3
  %accumulator.tr93 = phi i32 [ 0, %3 ], [ %accumulator.ret.tr, %81 ]
  %.tr90 = phi ptr [ %0, %3 ], [ %.us-phi51, %81 ]
  %.tr91 = phi i32 [ %1, %3 ], [ 0, %81 ]
  %.not = icmp eq i32 %2, 0
  %4 = icmp eq i32 %.tr91, 0
  br i1 %.not, label %tailrecurse.us, label %tailrecurse

tailrecurse.us:                                   ; preds = %tailrecurse89, %31
  %accumulator.tr.us = phi i32 [ %32, %31 ], [ 0, %tailrecurse89 ]
  %.tr.us = phi ptr [ %17, %31 ], [ %.tr90, %tailrecurse89 ]
  %.tr40.us = phi i1 [ false, %31 ], [ %4, %tailrecurse89 ]
  %5 = getelementptr i8, ptr %.tr.us, i64 20
  %.val33.us = load i32, ptr %5, align 4
  %6 = and i32 %.val33.us, 15
  switch i32 %6, label %7 [
    i32 5, label %.loopexit
    i32 2, label %.loopexit
  ]

7:                                                ; preds = %tailrecurse.us
  %.val34.us = load ptr, ptr %.tr.us, align 8
  %8 = getelementptr i8, ptr %.tr.us, i64 32
  %.val35.us = load ptr, ptr %8, align 8
  %9 = getelementptr i8, ptr %.val34.us, i64 32
  %.val34.val.us = load ptr, ptr %9, align 8
  %.val35.val.us = load i32, ptr %.val35.us, align 4
  %10 = getelementptr i8, ptr %.val34.val.us, i64 8
  %.val34.val.val.us = load ptr, ptr %10, align 8
  %11 = sext i32 %.val35.val.us to i64
  %12 = getelementptr inbounds ptr, ptr %.val34.val.val.us, i64 %11
  %13 = load ptr, ptr %12, align 8
  %14 = getelementptr i8, ptr %.val35.us, i64 4
  %.val37.val.us = load i32, ptr %14, align 4
  %15 = sext i32 %.val37.val.us to i64
  %16 = getelementptr inbounds ptr, ptr %.val34.val.val.us, i64 %15
  %17 = load ptr, ptr %16, align 8
  br i1 %.tr40.us, label %.split48.us, label %18

18:                                               ; preds = %7
  %19 = getelementptr inbounds nuw i8, ptr %13, i64 44
  %20 = load i32, ptr %19, align 4
  %21 = add nsw i32 %20, 1
  store i32 %21, ptr %19, align 4
  %22 = icmp eq i32 %20, 0
  br i1 %22, label %23, label %26

23:                                               ; preds = %18
  %24 = tail call fastcc i32 @Abc_NodeRefDeref(ptr noundef nonnull %13, i32 noundef 1, i32 noundef 0)
  %25 = add nsw i32 %24, 1
  br label %26

26:                                               ; preds = %23, %18
  %.0.us = phi i32 [ %25, %23 ], [ 1, %18 ]
  %27 = getelementptr inbounds nuw i8, ptr %17, i64 44
  %28 = load i32, ptr %27, align 4
  %29 = add nsw i32 %28, 1
  store i32 %29, ptr %27, align 4
  %30 = icmp eq i32 %28, 0
  br i1 %30, label %31, label %.loopexit

31:                                               ; preds = %26
  %32 = add nsw i32 %.0.us, %accumulator.tr.us
  br label %tailrecurse.us

tailrecurse:                                      ; preds = %tailrecurse89, %67
  %accumulator.tr = phi i32 [ %68, %67 ], [ 0, %tailrecurse89 ]
  %.tr = phi ptr [ %53, %67 ], [ %.tr90, %tailrecurse89 ]
  %.tr40 = phi i1 [ false, %67 ], [ %4, %tailrecurse89 ]
  %.val = load ptr, ptr %.tr, align 8
  %33 = getelementptr i8, ptr %.tr, i64 16
  %.val32 = load i32, ptr %33, align 8
  %34 = getelementptr inbounds nuw i8, ptr %.val, i64 216
  %35 = load i32, ptr %34, align 8
  %36 = getelementptr inbounds nuw i8, ptr %.val, i64 224
  %37 = add nsw i32 %.val32, 1
  tail call fastcc void @Vec_IntFillExtra(ptr noundef nonnull %36, i32 noundef %37)
  %38 = getelementptr i8, ptr %.val, i64 232
  %.val.i.i.i = load ptr, ptr %38, align 8
  %39 = sext i32 %.val32 to i64
  %40 = getelementptr inbounds i32, ptr %.val.i.i.i, i64 %39
  store i32 %35, ptr %40, align 4
  %41 = getelementptr i8, ptr %.tr, i64 20
  %.val33 = load i32, ptr %41, align 4
  %42 = and i32 %.val33, 15
  switch i32 %42, label %43 [
    i32 5, label %.loopexit
    i32 2, label %.loopexit
  ]

43:                                               ; preds = %tailrecurse
  %.val34 = load ptr, ptr %.tr, align 8
  %44 = getelementptr i8, ptr %.tr, i64 32
  %.val35 = load ptr, ptr %44, align 8
  %45 = getelementptr i8, ptr %.val34, i64 32
  %.val34.val = load ptr, ptr %45, align 8
  %.val35.val = load i32, ptr %.val35, align 4
  %46 = getelementptr i8, ptr %.val34.val, i64 8
  %.val34.val.val = load ptr, ptr %46, align 8
  %47 = sext i32 %.val35.val to i64
  %48 = getelementptr inbounds ptr, ptr %.val34.val.val, i64 %47
  %49 = load ptr, ptr %48, align 8
  %50 = getelementptr i8, ptr %.val35, i64 4
  %.val37.val = load i32, ptr %50, align 4
  %51 = sext i32 %.val37.val to i64
  %52 = getelementptr inbounds ptr, ptr %.val34.val.val, i64 %51
  %53 = load ptr, ptr %52, align 8
  br i1 %.tr40, label %.split48.us, label %54

54:                                               ; preds = %43
  %55 = getelementptr inbounds nuw i8, ptr %49, i64 44
  %56 = load i32, ptr %55, align 4
  %57 = add nsw i32 %56, 1
  store i32 %57, ptr %55, align 4
  %58 = icmp eq i32 %56, 0
  br i1 %58, label %59, label %62

59:                                               ; preds = %54
  %60 = tail call fastcc i32 @Abc_NodeRefDeref(ptr noundef nonnull %49, i32 noundef 1, i32 noundef %2)
  %61 = add nsw i32 %60, 1
  br label %62

62:                                               ; preds = %59, %54
  %.0 = phi i32 [ %61, %59 ], [ 1, %54 ]
  %63 = getelementptr inbounds nuw i8, ptr %53, i64 44
  %64 = load i32, ptr %63, align 4
  %65 = add nsw i32 %64, 1
  store i32 %65, ptr %63, align 4
  %66 = icmp eq i32 %64, 0
  br i1 %66, label %67, label %.loopexit

67:                                               ; preds = %62
  %68 = add nsw i32 %.0, %accumulator.tr
  br label %tailrecurse

.split48.us:                                      ; preds = %43, %7
  %.us-phi49 = phi i32 [ %accumulator.tr.us, %7 ], [ %accumulator.tr, %43 ]
  %.us-phi50 = phi ptr [ %13, %7 ], [ %49, %43 ]
  %.us-phi51 = phi ptr [ %17, %7 ], [ %53, %43 ]
  %69 = getelementptr inbounds nuw i8, ptr %.us-phi50, i64 44
  %70 = load i32, ptr %69, align 4
  %71 = add nsw i32 %70, -1
  store i32 %71, ptr %69, align 4
  %72 = icmp eq i32 %71, 0
  br i1 %72, label %73, label %76

73:                                               ; preds = %.split48.us
  %74 = tail call fastcc i32 @Abc_NodeRefDeref(ptr noundef nonnull %.us-phi50, i32 noundef 0, i32 noundef %2)
  %75 = add nsw i32 %74, 1
  br label %76

76:                                               ; preds = %73, %.split48.us
  %.2 = phi i32 [ %75, %73 ], [ 1, %.split48.us ]
  %77 = getelementptr inbounds nuw i8, ptr %.us-phi51, i64 44
  %78 = load i32, ptr %77, align 4
  %79 = add nsw i32 %78, -1
  store i32 %79, ptr %77, align 4
  %80 = icmp eq i32 %79, 0
  br i1 %80, label %81, label %.loopexit

81:                                               ; preds = %76
  %82 = add i32 %.2, %.us-phi49
  %accumulator.ret.tr = add i32 %82, %accumulator.tr93
  br label %tailrecurse89

.loopexit:                                        ; preds = %62, %tailrecurse, %tailrecurse, %26, %tailrecurse.us, %tailrecurse.us, %76
  %accumulator.tr45 = phi i32 [ %.us-phi49, %76 ], [ %accumulator.tr.us, %tailrecurse.us ], [ %accumulator.tr.us, %tailrecurse.us ], [ %accumulator.tr.us, %26 ], [ %accumulator.tr, %tailrecurse ], [ %accumulator.tr, %tailrecurse ], [ %accumulator.tr, %62 ]
  %.027 = phi i32 [ %.2, %76 ], [ %.0.us, %26 ], [ 0, %tailrecurse.us ], [ 0, %tailrecurse.us ], [ %.0, %62 ], [ 0, %tailrecurse ], [ 0, %tailrecurse ]
  %accumulator.ret.tr42 = add nsw i32 %.027, %accumulator.tr45
  %accumulator.ret.tr94 = add i32 %accumulator.ret.tr42, %accumulator.tr93
  ret i32 %accumulator.ret.tr94
}